; Function Attrs: mustprogress nounwind uwtable
define hidden noundef ptr @_ZN13CallGenerator23for_late_inline_virtualEP8ciMethodif(ptr noundef %0, i32 noundef %1, float noundef %2) local_unnamed_addr #0 align 2 {
  %4 = tail call align 8 ptr @llvm.threadlocal.address.p0(ptr align 8 @_ZN6Thread12_thr_currentE)
  %5 = load ptr, ptr %4, align 8
  %6 = getelementptr inbounds i8, ptr %5, i64 1808
  %7 = load ptr, ptr %6, align 8
  %8 = getelementptr inbounds i8, ptr %7, i64 128
  %9 = load ptr, ptr %8, align 8
  %10 = getelementptr inbounds i8, ptr %9, i64 296
  %11 = tail call noundef ptr @_ZN8ArenaObjnwEmP5Arena(i64 noundef 64, ptr noundef nonnull %10) #7
  %12 = icmp eq ptr %11, null
  br i1 %12, label %20, label %13

13:                                               ; preds = %3
  %14 = getelementptr inbounds i8, ptr %11, i64 8
  store ptr %0, ptr %14, align 8
  %15 = getelementptr inbounds i8, ptr %11, i64 16
  store i32 %1, ptr %15, align 8
  %16 = getelementptr inbounds i8, ptr %11, i64 20
  store i8 1, ptr %16, align 4
  %17 = getelementptr inbounds i8, ptr %11, i64 24
  store ptr null, ptr %17, align 8
  store ptr getelementptr inbounds inrange(-16, 200) (i8, ptr @_ZTV30LateInlineVirtualCallGenerator, i64 16), ptr %11, align 8
  %18 = getelementptr inbounds i8, ptr %11, i64 32
  %19 = getelementptr inbounds i8, ptr %11, i64 60
  tail call void @llvm.memset.p0.i64(ptr noundef nonnull align 8 dereferenceable(25) %18, i8 0, i64 25, i1 false)
  store float %2, ptr %19, align 4
  br label %20

20:                                               ; preds = %13, %3
  ret ptr %11
}